target datalayout = "e-m:e-p270:32:32-p271:32:32-p272:64:64-i64:64-i128:128-f80:128-n8:16:32:64-S128"
target triple = "x86_64-pc-linux-gnu"

%struct.asn1_string_st = type { i32, i32, ptr, i64 }

; Function Attrs: nounwind uwtable
define internal i64 @asn1_put_uint64(ptr noundef %0, i64 noundef %1) #0 {
  %3 = alloca ptr, align 8
  %4 = alloca i64, align 8
  %5 = alloca i64, align 8
  store ptr %0, ptr %3, align 8, !tbaa !18
  store i64 %1, ptr %4, align 8, !tbaa !19
  call void @llvm.lifetime.start.p0(i64 8, ptr %5) #4
  store i64 8, ptr %5, align 8, !tbaa !19
  br label %6

6:                                                ; preds = %13, %2
  %7 = load i64, ptr %4, align 8, !tbaa !19
  %8 = trunc i64 %7 to i8
  %9 = load ptr, ptr %3, align 8, !tbaa !18
  %10 = load i64, ptr %5, align 8, !tbaa !19
  %11 = add i64 %10, -1
  store i64 %11, ptr %5, align 8, !tbaa !19
  %12 = getelementptr inbounds nuw i8, ptr %9, i64 %11
  store i8 %8, ptr %12, align 1, !tbaa !20
  br label %13

13:                                               ; preds = %6
  %14 = load i64, ptr %4, align 8, !tbaa !19
  %15 = lshr i64 %14, 8
  store i64 %15, ptr %4, align 8, !tbaa !19
  %16 = icmp ne i64 %15, 0
  br i1 %16, label %6, label %17, !llvm.loop !33

17:                                               ; preds = %13
  %18 = load i64, ptr %5, align 8, !tbaa !19
  call void @llvm.lifetime.end.p0(i64 8, ptr %5) #4
  ret i64 %18
}

; Function Attrs: nounwind uwtable
define internal i32 @asn1_string_set_int64(ptr noundef %0, i64 noundef %1, i32 noundef %2) #0 {
  %4 = alloca ptr, align 8
  %5 = alloca i64, align 8
  %6 = alloca i32, align 4
  %7 = alloca [8 x i8], align 1
  %8 = alloca i64, align 8
  store ptr %0, ptr %4, align 8, !tbaa !3
  store i64 %1, ptr %5, align 8, !tbaa !19
  store i32 %2, ptr %6, align 4, !tbaa !13
  call void @llvm.lifetime.start.p0(i64 8, ptr %7) #4
  call void @llvm.lifetime.start.p0(i64 8, ptr %8) #4
  %9 = load i32, ptr %6, align 4, !tbaa !13
  %10 = load ptr, ptr %4, align 8, !tbaa !3
  %11 = getelementptr inbounds nuw %struct.asn1_string_st, ptr %10, i32 0, i32 1
  store i32 %9, ptr %11, align 4, !tbaa !8
  %12 = load i64, ptr %5, align 8, !tbaa !19
  %13 = icmp slt i64 %12, 0
  br i1 %13, label %14, label %23

14:                                               ; preds = %3
  %15 = getelementptr inbounds [8 x i8], ptr %7, i64 0, i64 0
  %16 = load i64, ptr %5, align 8, !tbaa !19
  %17 = sub i64 0, %16
  %18 = call i64 @asn1_put_uint64(ptr noundef %15, i64 noundef %17)
  store i64 %18, ptr %8, align 8, !tbaa !19
  %19 = load ptr, ptr %4, align 8, !tbaa !3
  %20 = getelementptr inbounds nuw %struct.asn1_string_st, ptr %19, i32 0, i32 1
  %21 = load i32, ptr %20, align 4, !tbaa !8
  %22 = or i32 %21, 256
  store i32 %22, ptr %20, align 4, !tbaa !8
  br label %31

23:                                               ; preds = %3
  %24 = getelementptr inbounds [8 x i8], ptr %7, i64 0, i64 0
  %25 = load i64, ptr %5, align 8, !tbaa !19
  %26 = call i64 @asn1_put_uint64(ptr noundef %24, i64 noundef %25)
  store i64 %26, ptr %8, align 8, !tbaa !19
  %27 = load ptr, ptr %4, align 8, !tbaa !3
  %28 = getelementptr inbounds nuw %struct.asn1_string_st, ptr %27, i32 0, i32 1
  %29 = load i32, ptr %28, align 4, !tbaa !8
  %30 = and i32 %29, -257
  store i32 %30, ptr %28, align 4, !tbaa !8
  br label %31

31:                                               ; preds = %23, %14
  %32 = load ptr, ptr %4, align 8, !tbaa !3
  %33 = getelementptr inbounds [8 x i8], ptr %7, i64 0, i64 0
  %34 = load i64, ptr %8, align 8, !tbaa !19
  %35 = getelementptr inbounds nuw i8, ptr %33, i64 %34
  %36 = load i64, ptr %8, align 8, !tbaa !19
  %37 = sub i64 8, %36
  %38 = trunc i64 %37 to i32
  %39 = call i32 @ASN1_STRING_set(ptr noundef %32, ptr noundef %35, i32 noundef %38)
  call void @llvm.lifetime.end.p0(i64 8, ptr %8) #4
  call void @llvm.lifetime.end.p0(i64 8, ptr %7) #4
  ret i32 %39
}

; Function Attrs: nounwind uwtable
define i32 @ASN1_ENUMERATED_set_int64(ptr noundef %0, i64 noundef %1) #0 {
  %3 = alloca ptr, align 8
  %4 = alloca i64, align 8
  store ptr %0, ptr %3, align 8, !tbaa !3
  store i64 %1, ptr %4, align 8, !tbaa !19
  %5 = load ptr, ptr %3, align 8, !tbaa !3
  %6 = load i64, ptr %4, align 8, !tbaa !19
  %7 = call i32 @asn1_string_set_int64(ptr noundef %5, i64 noundef %6, i32 noundef 10)
  ret i32 %7
}

; Function Attrs: nounwind uwtable
define i32 @ASN1_ENUMERATED_set(ptr noundef %0, i64 noundef %1) #0 {
  %3 = alloca ptr, align 8
  %4 = alloca i64, align 8
  store ptr %0, ptr %3, align 8, !tbaa !3
  store i64 %1, ptr %4, align 8, !tbaa !19
  %5 = load ptr, ptr %3, align 8, !tbaa !3
  %6 = load i64, ptr %4, align 8, !tbaa !19
  %7 = call i32 @ASN1_ENUMERATED_set_int64(ptr noundef %5, i64 noundef %6)
  ret i32 %7
}